; Function Attrs: mustprogress nounwind uwtable
define hidden void @_ZN6google8protobuf2io16FileOutputStreamD2Ev(ptr noundef nonnull align 8 dereferenceable(72) initializes((0, 8)) %0) unnamed_addr #5 align 2 personality ptr @__gxx_personality_v0 {
  store ptr getelementptr inbounds nuw inrange(-16, 56) (i8, ptr @_ZTVN6google8protobuf2io16FileOutputStreamE, i64 16), ptr %0, align 8, !tbaa !3
  %2 = invoke noundef zeroext i1 @_ZN6google8protobuf2io26CopyingOutputStreamAdaptor5FlushEv(ptr noundef nonnull align 8 dereferenceable(48) %0)
          to label %3 unwind label %5

3:                                                ; preds = %1
  %4 = getelementptr inbounds nuw i8, ptr %0, i64 48
  tail call void @_ZN6google8protobuf2io16FileOutputStream23CopyingFileOutputStreamD2Ev(ptr noundef nonnull align 8 dereferenceable(20) %4) #15
  tail call void @_ZN6google8protobuf2io26CopyingOutputStreamAdaptorD2Ev(ptr noundef nonnull align 8 dereferenceable(48) %0) #15
  ret void

5:                                                ; preds = %1
  %6 = landingpad { ptr, i32 }
          catch ptr null
  %7 = extractvalue { ptr, i32 } %6, 0
  tail call void @__clang_call_terminate(ptr %7) #17
  unreachable
}